; Function Attrs: mustprogress nounwind uwtable
define void @_ZN6gmxapi13launchSessionEPNS_7ContextERKNS_8WorkflowE(ptr dead_on_unwind noalias writable sret(%"class.std::shared_ptr.131") align 8 %0, ptr noundef nonnull %1, ptr noundef nonnull align 1 %2) local_unnamed_addr #4 personality ptr @__gxx_personality_v0 {
  invoke void @_ZN6gmxapi7Context6launchERKNS_8WorkflowE(ptr dead_on_unwind writable sret(%"class.std::shared_ptr.131") align 8 %0, ptr noundef nonnull align 8 dereferenceable(16) %1, ptr noundef nonnull align 1 %2)
          to label %4 unwind label %5

4:                                                ; preds = %3
  ret void

5:                                                ; preds = %3
  %6 = landingpad { ptr, i32 }
          catch ptr null
  %7 = extractvalue { ptr, i32 } %6, 0
  tail call void @__clang_call_terminate(ptr %7) #27
  unreachable
}